target datalayout = "e-m:e-p270:32:32-p271:32:32-p272:64:64-i64:64-i128:128-f80:128-n8:16:32:64-S128"
target triple = "x86_64-pc-linux-gnu"

; Function Attrs: nounwind uwtable
define hidden i32 @PKCS12_verify_mac(ptr noundef %0, ptr noundef %1, i32 noundef %2) #0 {
  %4 = alloca i32, align 4
  %5 = alloca ptr, align 8
  %6 = alloca ptr, align 8
  %7 = alloca i32, align 4
  %8 = alloca ptr, align 8
  %9 = alloca ptr, align 8
  %10 = alloca i32, align 4
  store ptr %0, ptr %5, align 8, !tbaa !79
  store ptr %1, ptr %6, align 8, !tbaa !11
  store i32 %2, ptr %7, align 4, !tbaa !13
  %11 = load ptr, ptr %6, align 8, !tbaa !11
  %12 = icmp eq ptr %11, null
  br i1 %12, label %13, label %18

13:                                               ; preds = %3
  %14 = load i32, ptr %7, align 4, !tbaa !13
  %15 = icmp ne i32 %14, 0
  br i1 %15, label %16, label %17

16:                                               ; preds = %13
  store i32 0, ptr %4, align 4
  br label %47

17:                                               ; preds = %13
  br label %37

18:                                               ; preds = %3
  %19 = load i32, ptr %7, align 4, !tbaa !13
  %20 = icmp ne i32 %19, -1
  br i1 %20, label %21, label %36

21:                                               ; preds = %18
  %22 = load ptr, ptr %6, align 8, !tbaa !11
  %23 = load i32, ptr %7, align 4, !tbaa !13
  %24 = sext i32 %23 to i64
  %25 = getelementptr inbounds i8, ptr %22, i64 %24
  %26 = load i8, ptr %25, align 1, !tbaa !65
  %27 = sext i8 %26 to i32
  %28 = icmp ne i32 %27, 0
  br i1 %28, label %35, label %29

29:                                               ; preds = %21
  %30 = load ptr, ptr %6, align 8, !tbaa !11
  %31 = load i32, ptr %7, align 4, !tbaa !13
  %32 = sext i32 %31 to i64
  %33 = call ptr @memchr(ptr noundef %30, i32 noundef 0, i64 noundef %32) #9
  %34 = icmp ne ptr %33, null
  br i1 %34, label %35, label %36

35:                                               ; preds = %29, %21
  store i32 0, ptr %4, align 4
  br label %47

36:                                               ; preds = %29, %18
  br label %37

37:                                               ; preds = %36, %17
  call void @llvm.lifetime.start.p0(i64 8, ptr %8) #8
  store ptr null, ptr %8, align 8, !tbaa !46
  call void @llvm.lifetime.start.p0(i64 8, ptr %9) #8
  store ptr null, ptr %9, align 8, !tbaa !61
  %38 = load ptr, ptr %5, align 8, !tbaa !79
  %39 = load ptr, ptr %6, align 8, !tbaa !11
  %40 = call i32 @PKCS12_parse(ptr noundef %38, ptr noundef %39, ptr noundef %8, ptr noundef %9, ptr noundef null)
  %41 = icmp ne i32 %40, 0
  br i1 %41, label %43, label %42

42:                                               ; preds = %37
  call void @ERR_clear_error()
  store i32 0, ptr %4, align 4
  store i32 1, ptr %10, align 4
  br label %46

43:                                               ; preds = %37
  %44 = load ptr, ptr %8, align 8, !tbaa !46
  call void @EVP_PKEY_free(ptr noundef %44)
  %45 = load ptr, ptr %9, align 8, !tbaa !61
  call void @X509_free(ptr noundef %45)
  store i32 1, ptr %4, align 4
  store i32 1, ptr %10, align 4
  br label %46

46:                                               ; preds = %43, %42
  call void @llvm.lifetime.end.p0(i64 8, ptr %9) #8
  call void @llvm.lifetime.end.p0(i64 8, ptr %8) #8
  br label %47

47:                                               ; preds = %46, %35, %16
  %48 = load i32, ptr %4, align 4
  ret i32 %48
}