; Function Attrs: nounwind uwtable
define hidden range(i32 0, 2) i32 @PKCS12_verify_mac(ptr noundef readonly captures(none) %0, ptr noundef %1, i32 noundef %2) local_unnamed_addr #0 {
  %4 = alloca ptr, align 8
  %5 = alloca ptr, align 8
  %6 = icmp eq ptr %1, null
  br i1 %6, label %7, label %8

7:                                                ; preds = %3
  %.not13 = icmp eq i32 %2, 0
  br i1 %.not13, label %15, label %22

8:                                                ; preds = %3
  %.not = icmp eq i32 %2, -1
  br i1 %.not, label %15, label %9

9:                                                ; preds = %8
  %10 = sext i32 %2 to i64
  %11 = getelementptr inbounds i8, ptr %1, i64 %10
  %12 = load i8, ptr %11, align 1, !tbaa !27
  %.not11 = icmp eq i8 %12, 0
  br i1 %.not11, label %13, label %22

13:                                               ; preds = %9
  %14 = tail call ptr @memchr(ptr noundef nonnull %1, i32 noundef 0, i64 noundef %10) #13
  %.not12 = icmp eq ptr %14, null
  br i1 %.not12, label %15, label %22

15:                                               ; preds = %8, %13, %7
  call void @llvm.lifetime.start.p0(i64 8, ptr nonnull %4) #12
  store ptr null, ptr %4, align 8, !tbaa !33
  call void @llvm.lifetime.start.p0(i64 8, ptr nonnull %5) #12
  store ptr null, ptr %5, align 8, !tbaa !59
  %16 = call i32 @PKCS12_parse(ptr noundef %0, ptr noundef %1, ptr noundef nonnull %4, ptr noundef nonnull %5, ptr noundef null)
  %.not14 = icmp eq i32 %16, 0
  br i1 %.not14, label %17, label %18

17:                                               ; preds = %15
  call void @ERR_clear_error() #12
  br label %21

18:                                               ; preds = %15
  %19 = load ptr, ptr %4, align 8, !tbaa !33
  call void @EVP_PKEY_free(ptr noundef %19) #12
  %20 = load ptr, ptr %5, align 8, !tbaa !59
  call void @X509_free(ptr noundef %20) #12
  br label %21

21:                                               ; preds = %18, %17
  %.1 = phi i32 [ 1, %18 ], [ 0, %17 ]
  call void @llvm.lifetime.end.p0(i64 8, ptr nonnull %5) #12
  call void @llvm.lifetime.end.p0(i64 8, ptr nonnull %4) #12
  br label %22

22:                                               ; preds = %9, %13, %7, %21
  %.0 = phi i32 [ %.1, %21 ], [ 0, %7 ], [ 0, %13 ], [ 0, %9 ]
  ret i32 %.0
}